(lp0
(lp1
I10
aI4
aI11
aa(lp2
I10
aI4
aI7
aa(lp3
I10
aI4
aI7
aa(lp4
I10
aI4
aI7
aa(lp5
I10
aI4
aI18
aa(lp6
I10
aI4
aI18
aa(lp7
I10
aI4
aI18
aa(lp8
I10
aI4
aI18
aa(lp9
I10
aI4
aI9
aa(lp10
I10
aI4
aI7
aa(lp11
I10
aI4
aI9
aa(lp12
I10
aI4
aI11
aa(lp13
I10
aI4
aI9
aa(lp14
I10
aI4
aI9
aa(lp15
I10
aI4
aI18
aa(lp16
I10
aI4
aI7
aa(lp17
I10
aI4
aI18
aa(lp18
I10
aI4
aI18
aa(lp19
I10
aI4
aI18
aa(lp20
I10
aI4
aI7
aa(lp21
I10
aI4
aI9
aa(lp22
I10
aI4
aI11
aa(lp23
I10
aI4
aI9
aa(lp24
I10
aI4
aI18
aa(lp25
I10
aI4
aI9
aa(lp26
I10
aI4
aI7
aa(lp27
I10
aI4
aI9
aa(lp28
I10
aI4
aI7
aa(lp29
I10
aI4
aI9
aa(lp30
I10
aI4
aI7
aa(lp31
I10
aI4
aI11
aa(lp32
I10
aI4
aI18
aa(lp33
I10
aI4
aI7
aa(lp34
I10
aI4
aI9
aa(lp35
I10
aI4
aI7
aa(lp36
I10
aI4
aI11
aa(lp37
I10
aI4
aI9
aa(lp38
I10
aI4
aI7
aa(lp39
I10
aI4
aI9
aa(lp40
I10
aI4
aI18
aa(lp41
I10
aI4
aI7
aa(lp42
I10
aI4
aI7
aa(lp43
I10
aI4
aI7
aa(lp44
I10
aI4
aI18
aa(lp45
I10
aI4
aI7
aa(lp46
I10
aI4
aI18
aa(lp47
I10
aI4
aI18
aa(lp48
I10
aI4
aI9
aa(lp49
I10
aI4
aI18
aa(lp50
I10
aI4
aI7
aa(lp51
I10
aI4
aI11
aa(lp52
I10
aI4
aI18
aa(lp53
I10
aI4
aI18
aa(lp54
I10
aI4
aI9
aa(lp55
I10
aI4
aI9
aa(lp56
I10
aI4
aI11
aa(lp57
I10
aI4
aI11
aa(lp58
I10
aI4
aI9
aa(lp59
I10
aI4
aI18
aa(lp60
I10
aI4
aI11
aa(lp61
I10
aI4
aI9
aa(lp62
I10
aI4
aI9
aa(lp63
I10
aI4
aI7
aa(lp64
I10
aI4
aI7
aa(lp65
I10
aI4
aI9
aa(lp66
I10
aI4
aI7
aa(lp67
I10
aI4
aI11
aa(lp68
I10
aI4
aI7
aa(lp69
I10
aI4
aI7
aa(lp70
I10
aI4
aI18
aa(lp71
I10
aI4
aI18
aa(lp72
I10
aI4
aI11
aa(lp73
I10
aI4
aI18
aa(lp74
I10
aI4
aI11
aa(lp75
I10
aI4
aI9
aa(lp76
I10
aI4
aI18
aa(lp77
I10
aI4
aI11
aa(lp78
I10
aI4
aI11
aa(lp79
I10
aI4
aI7
aa(lp80
I10
aI4
aI11
aa(lp81
I10
aI4
aI18
aa(lp82
I10
aI4
aI18
aa(lp83
I10
aI4
aI18
aa(lp84
I10
aI4
aI11
aa(lp85
I10
aI4
aI9
aa(lp86
I10
aI4
aI11
aa(lp87
I10
aI4
aI7
aa(lp88
I10
aI4
aI7
aa(lp89
I10
aI4
aI18
aa(lp90
I10
aI4
aI11
aa(lp91
I10
aI4
aI9
aa(lp92
I10
aI4
aI9
aa(lp93
I10
aI4
aI9
aa(lp94
I10
aI4
aI11
aa(lp95
I10
aI4
aI7
aa(lp96
I10
aI4
aI11
aa(lp97
I10
aI4
aI11
aa(lp98
I10
aI4
aI11
aa(lp99
I10
aI4
aI11
aa(lp100
I10
aI4
aI7
aa(lp101
I10
aI4
aI7
aa(lp102
I10
aI4
aI18
aa(lp103
I10
aI4
aI11
aa(lp104
I10
aI4
aI11
aa(lp105
I10
aI4
aI11
aa(lp106
I10
aI4
aI18
aa(lp107
I10
aI4
aI18
aa(lp108
I10
aI4
aI11
aa(lp109
I10
aI4
aI9
aa(lp110
I10
aI4
aI11
aa(lp111
I10
aI4
aI18
aa(lp112
I10
aI4
aI18
aa(lp113
I10
aI4
aI18
aa(lp114
I10
aI4
aI18
aa(lp115
I10
aI4
aI7
aa(lp116
I10
aI4
aI11
aa(lp117
I10
aI4
aI18
aa(lp118
I10
aI4
aI11
aa(lp119
I10
aI4
aI9
aa(lp120
I10
aI4
aI9
aa(lp121
I10
aI4
aI9
aa(lp122
I10
aI4
aI9
aa(lp123
I10
aI4
aI9
aa(lp124
I10
aI4
aI7
aa(lp125
I10
aI4
aI7
aa(lp126
I10
aI4
aI9
aa(lp127
I10
aI4
aI7
aa(lp128
I10
aI4
aI9
aa(lp129
I10
aI4
aI11
aa(lp130
I10
aI4
aI7
aa(lp131
I10
aI4
aI18
aa(lp132
I10
aI4
aI7
aa(lp133
I10
aI4
aI18
aa(lp134
I10
aI4
aI7
aa(lp135
I10
aI4
aI9
aa(lp136
I10
aI4
aI7
aa(lp137
I10
aI4
aI9
aa(lp138
I10
aI4
aI7
aa(lp139
I10
aI4
aI9
aa(lp140
I10
aI4
aI7
aa(lp141
I10
aI4
aI11
aa(lp142
I10
aI4
aI18
aa(lp143
I10
aI4
aI11
aa(lp144
I10
aI4
aI11
aa(lp145
I10
aI4
aI7
aa(lp146
I10
aI4
aI7
aa(lp147
I10
aI4
aI9
aa(lp148
I10
aI4
aI9
aa(lp149
I10
aI4
aI18
aa(lp150
I10
aI4
aI18
aa(lp151
I10
aI4
aI18
aa(lp152
I10
aI4
aI9
aa(lp153
I10
aI4
aI18
aa(lp154
I10
aI4
aI18
aa(lp155
I10
aI4
aI7
aa(lp156
I10
aI4
aI11
aa(lp157
I10
aI4
aI9
aa(lp158
I10
aI4
aI9
aa(lp159
I10
aI4
aI7
aa(lp160
I10
aI4
aI11
aa(lp161
I10
aI4
aI7
aa(lp162
I10
aI4
aI18
aa(lp163
I10
aI4
aI11
aa(lp164
I10
aI4
aI7
aa(lp165
I10
aI4
aI18
aa(lp166
I10
aI4
aI9
aa(lp167
I10
aI4
aI11
aa(lp168
I10
aI4
aI18
aa(lp169
I10
aI4
aI7
aa(lp170
I10
aI4
aI11
aa(lp171
I10
aI4
aI18
aa(lp172
I10
aI4
aI11
aa(lp173
I10
aI4
aI11
aa(lp174
I10
aI4
aI11
aa(lp175
I10
aI4
aI9
aa(lp176
I10
aI4
aI11
aa(lp177
I10
aI4
aI11
aa(lp178
I10
aI4
aI9
aa(lp179
I10
aI4
aI9
aa(lp180
I10
aI4
aI11
aa(lp181
I10
aI4
aI7
aa(lp182
I10
aI4
aI7
aa(lp183
I10
aI4
aI9
aa(lp184
I10
aI4
aI9
aa(lp185
I10
aI4
aI18
aa(lp186
I10
aI4
aI18
aa(lp187
I10
aI4
aI11
aa(lp188
I10
aI4
aI11
aa(lp189
I10
aI4
aI9
aa(lp190
I10
aI4
aI11
aa(lp191
I10
aI4
aI7
aa(lp192
I10
aI4
aI11
aa(lp193
I10
aI4
aI11
aa(lp194
I10
aI4
aI7
aa(lp195
I10
aI4
aI7
aa(lp196
I10
aI4
aI18
aa(lp197
I10
aI4
aI7
aa(lp198
I10
aI4
aI18
aa(lp199
I10
aI4
aI7
aa(lp200
I10
aI4
aI9
aa(lp201
I10
aI4
aI7
aa(lp202
I10
aI4
aI7
aa(lp203
I10
aI4
aI9
aa(lp204
I10
aI4
aI9
aa(lp205
I10
aI4
aI7
aa(lp206
I10
aI4
aI9
aa(lp207
I10
aI4
aI7
aa(lp208
I10
aI4
aI9
aa(lp209
I10
aI4
aI11
aa(lp210
I10
aI4
aI18
aa(lp211
I10
aI4
aI7
aa(lp212
I10
aI4
aI11
aa(lp213
I10
aI4
aI9
aa(lp214
I10
aI4
aI11
aa(lp215
I10
aI4
aI9
aa(lp216
I10
aI4
aI11
aa(lp217
I10
aI4
aI18
aa(lp218
I10
aI4
aI9
aa(lp219
I10
aI4
aI18
aa(lp220
I10
aI4
aI18
aa(lp221
I10
aI4
aI9
aa(lp222
I10
aI4
aI11
aa(lp223
I10
aI4
aI11
aa(lp224
I10
aI4
aI11
aa(lp225
I10
aI4
aI11
aa(lp226
I10
aI4
aI7
aa(lp227
I10
aI4
aI11
aa(lp228
I10
aI4
aI7
aa(lp229
I10
aI4
aI9
aa(lp230
I10
aI4
aI18
aa(lp231
I10
aI4
aI11
aa(lp232
I10
aI4
aI18
aa(lp233
I10
aI4
aI9
aa(lp234
I10
aI4
aI18
aa(lp235
I10
aI4
aI18
aa(lp236
I10
aI4
aI9
aa(lp237
I10
aI4
aI9
aa(lp238
I10
aI4
aI9
aa(lp239
I10
aI4
aI18
aa(lp240
I10
aI4
aI11
aa(lp241
I10
aI4
aI7
aa(lp242
I10
aI4
aI7
aa(lp243
I10
aI4
aI11
aa(lp244
I10
aI4
aI18
aa(lp245
I10
aI4
aI9
aa(lp246
I10
aI4
aI7
aa(lp247
I10
aI4
aI18
aa(lp248
I10
aI4
aI7
aa(lp249
I10
aI4
aI7
aa(lp250
I10
aI4
aI11
aa(lp251
I10
aI4
aI9
aa(lp252
I10
aI4
aI18
aa(lp253
I10
aI4
aI18
aa(lp254
I10
aI4
aI9
aa(lp255
I10
aI4
aI7
aa(lp256
I10
aI4
aI7
aa(lp257
I10
aI4
aI7
aa(lp258
I10
aI4
aI7
aa(lp259
I10
aI4
aI18
aa(lp260
I10
aI4
aI18
aa(lp261
I10
aI4
aI9
aa(lp262
I10
aI4
aI7
aa(lp263
I10
aI4
aI9
aa(lp264
I10
aI4
aI18
aa(lp265
I10
aI4
aI7
aa(lp266
I10
aI4
aI18
aa(lp267
I10
aI4
aI11
aa(lp268
I10
aI4
aI18
aa(lp269
I10
aI4
aI11
aa(lp270
I10
aI4
aI7
aa(lp271
I10
aI4
aI9
aa(lp272
I10
aI4
aI9
aa(lp273
I10
aI4
aI7
aa(lp274
I10
aI4
aI18
aa(lp275
I10
aI4
aI18
aa(lp276
I10
aI4
aI9
aa(lp277
I10
aI4
aI9
aa(lp278
I10
aI4
aI9
aa(lp279
I10
aI4
aI9
aa(lp280
I10
aI4
aI9
aa(lp281
I10
aI4
aI9
aa(lp282
I10
aI4
aI11
aa(lp283
I10
aI4
aI18
aa(lp284
I10
aI4
aI7
aa(lp285
I10
aI4
aI11
aa(lp286
I10
aI4
aI7
aa(lp287
I10
aI4
aI7
aa(lp288
I10
aI4
aI9
aa(lp289
I10
aI4
aI11
aa(lp290
I10
aI4
aI11
aa(lp291
I10
aI4
aI11
aa(lp292
I10
aI4
aI11
aa(lp293
I10
aI4
aI18
aa(lp294
I10
aI4
aI18
aa(lp295
I10
aI4
aI7
aa(lp296
I10
aI4
aI11
aa(lp297
I10
aI4
aI9
aa(lp298
I10
aI4
aI9
aa(lp299
I10
aI4
aI11
aa(lp300
I10
aI4
aI9
aa(lp301
I10
aI4
aI11
aa(lp302
I10
aI4
aI7
aa(lp303
I10
aI4
aI7
aa(lp304
I10
aI4
aI18
aa(lp305
I10
aI4
aI7
aa(lp306
I10
aI4
aI9
aa(lp307
I10
aI4
aI11
aa(lp308
I10
aI4
aI11
aa(lp309
I10
aI4
aI7
aa(lp310
I10
aI4
aI7
aa(lp311
I10
aI4
aI9
aa(lp312
I10
aI4
aI9
aa(lp313
I10
aI4
aI9
aa(lp314
I10
aI4
aI18
aa(lp315
I10
aI4
aI9
aa(lp316
I10
aI4
aI9
aa(lp317
I10
aI4
aI9
aa(lp318
I10
aI4
aI9
aa(lp319
I10
aI4
aI9
aa(lp320
I10
aI4
aI7
aa(lp321
I10
aI4
aI11
aa(lp322
I10
aI4
aI7
aa(lp323
I10
aI4
aI9
aa(lp324
I10
aI4
aI11
aa(lp325
I10
aI4
aI18
aa(lp326
I10
aI4
aI7
aa(lp327
I10
aI4
aI18
aa(lp328
I10
aI4
aI7
aa(lp329
I10
aI4
aI11
aa(lp330
I10
aI4
aI18
aa(lp331
I10
aI4
aI11
aa(lp332
I10
aI4
aI18
aa(lp333
I10
aI4
aI11
aa(lp334
I10
aI4
aI18
aa(lp335
I10
aI4
aI18
aa(lp336
I10
aI4
aI7
aa(lp337
I10
aI4
aI9
aa(lp338
I10
aI4
aI11
aa(lp339
I10
aI4
aI7
aa(lp340
I10
aI4
aI7
aa(lp341
I10
aI4
aI11
aa(lp342
I10
aI4
aI7
aa(lp343
I10
aI4
aI7
aa(lp344
I10
aI4
aI11
aa(lp345
I10
aI4
aI18
aa(lp346
I10
aI4
aI9
aa(lp347
I10
aI4
aI9
aa(lp348
I10
aI4
aI9
aa(lp349
I10
aI4
aI7
aa(lp350
I10
aI4
aI11
aa(lp351
I10
aI4
aI7
aa(lp352
I10
aI4
aI7
aa(lp353
I10
aI4
aI18
aa(lp354
I10
aI4
aI18
aa(lp355
I10
aI4
aI18
aa(lp356
I10
aI4
aI18
aa(lp357
I10
aI4
aI9
aa(lp358
I10
aI4
aI7
aa(lp359
I10
aI4
aI9
aa(lp360
I10
aI4
aI9
aa(lp361
I10
aI4
aI11
aa(lp362
I10
aI4
aI11
aa(lp363
I10
aI4
aI9
aa(lp364
I10
aI4
aI11
aa(lp365
I10
aI4
aI18
aa(lp366
I10
aI4
aI7
aa(lp367
I10
aI4
aI11
aa(lp368
I10
aI4
aI7
aa(lp369
I10
aI4
aI9
aa(lp370
I10
aI4
aI18
aa(lp371
I10
aI4
aI18
aa(lp372
I10
aI4
aI18
aa(lp373
I10
aI4
aI18
aa(lp374
I10
aI4
aI7
aa(lp375
I10
aI4
aI7
aa(lp376
I10
aI4
aI11
aa(lp377
I10
aI4
aI9
aa(lp378
I10
aI4
aI11
aa(lp379
I10
aI4
aI18
aa(lp380
I10
aI4
aI7
aa(lp381
I10
aI4
aI9
aa(lp382
I10
aI4
aI18
aa(lp383
I10
aI4
aI18
aa(lp384
I10
aI4
aI9
aa(lp385
I10
aI4
aI9
aa(lp386
I10
aI4
aI9
aa(lp387
I10
aI4
aI9
aa(lp388
I10
aI4
aI9
aa(lp389
I10
aI4
aI9
aa(lp390
I10
aI4
aI7
aa(lp391
I10
aI4
aI11
aa(lp392
I10
aI4
aI9
aa(lp393
I10
aI4
aI9
aa(lp394
I10
aI4
aI11
aa(lp395
I10
aI4
aI7
aa(lp396
I10
aI4
aI9
aa(lp397
I10
aI4
aI11
aa(lp398
I10
aI4
aI9
aa(lp399
I10
aI4
aI9
aa(lp400
I10
aI4
aI9
aa(lp401
I10
aI4
aI18
aa(lp402
I10
aI4
aI11
aa(lp403
I10
aI4
aI18
aa(lp404
I10
aI4
aI11
aa(lp405
I10
aI4
aI9
aa(lp406
I10
aI4
aI18
aa(lp407
I10
aI4
aI7
aa(lp408
I10
aI4
aI7
aa(lp409
I10
aI4
aI7
aa(lp410
I10
aI4
aI7
aa(lp411
I10
aI4
aI18
aa(lp412
I10
aI4
aI18
aa(lp413
I10
aI4
aI18
aa(lp414
I10
aI4
aI18
aa(lp415
I10
aI4
aI7
aa(lp416
I10
aI4
aI11
aa(lp417
I10
aI4
aI11
aa(lp418
I10
aI4
aI7
aa(lp419
I10
aI4
aI7
aa(lp420
I10
aI4
aI11
aa(lp421
I10
aI4
aI7
aa(lp422
I10
aI4
aI18
aa(lp423
I10
aI4
aI9
aa(lp424
I10
aI4
aI11
aa(lp425
I10
aI4
aI11
aa(lp426
I10
aI4
aI11
aa(lp427
I10
aI4
aI9
aa(lp428
I10
aI4
aI7
aa(lp429
I10
aI4
aI18
aa(lp430
I10
aI4
aI11
aa(lp431
I10
aI4
aI7
aa(lp432
I10
aI4
aI18
aa(lp433
I10
aI4
aI7
aa(lp434
I10
aI4
aI18
aa(lp435
I10
aI4
aI18
aa(lp436
I10
aI4
aI11
aa(lp437
I10
aI4
aI11
aa(lp438
I10
aI4
aI7
aa(lp439
I10
aI4
aI11
aa(lp440
I10
aI4
aI11
aa(lp441
I10
aI4
aI11
aa(lp442
I10
aI4
aI9
aa(lp443
I10
aI4
aI11
aa(lp444
I10
aI4
aI9
aa(lp445
I10
aI4
aI18
aa(lp446
I10
aI4
aI11
aa(lp447
I10
aI4
aI18
aa(lp448
I10
aI4
aI18
aa(lp449
I10
aI4
aI9
aa(lp450
I10
aI4
aI18
aa(lp451
I10
aI4
aI11
aa(lp452
I10
aI4
aI18
aa(lp453
I10
aI4
aI7
aa(lp454
I10
aI4
aI7
aa(lp455
I10
aI4
aI7
aa(lp456
I10
aI4
aI18
aa(lp457
I10
aI4
aI11
aa(lp458
I10
aI4
aI18
aa(lp459
I10
aI4
aI11
aa(lp460
I10
aI4
aI7
aa(lp461
I10
aI4
aI7
aa(lp462
I10
aI4
aI11
aa(lp463
I10
aI4
aI9
aa(lp464
I10
aI4
aI9
aa(lp465
I10
aI4
aI11
aa(lp466
I10
aI4
aI9
aa(lp467
I10
aI4
aI7
aa(lp468
I10
aI4
aI9
aa(lp469
I10
aI4
aI18
aa(lp470
I10
aI4
aI11
aa(lp471
I10
aI4
aI7
aa(lp472
I10
aI4
aI18
aa(lp473
I10
aI4
aI18
aa(lp474
I10
aI4
aI7
aa(lp475
I10
aI4
aI11
aa(lp476
I10
aI4
aI7
aa(lp477
I10
aI4
aI9
aa(lp478
I10
aI4
aI18
aa(lp479
I10
aI4
aI9
aa(lp480
I10
aI4
aI7
aa(lp481
I10
aI4
aI18
aa(lp482
I10
aI4
aI7
aa(lp483
I10
aI4
aI18
aa(lp484
I10
aI4
aI11
aa(lp485
I10
aI4
aI9
aa(lp486
I10
aI4
aI9
aa(lp487
I10
aI4
aI18
aa(lp488
I10
aI4
aI18
aa(lp489
I10
aI4
aI7
aa(lp490
I10
aI4
aI18
aa(lp491
I10
aI4
aI9
aa(lp492
I10
aI4
aI9
aa(lp493
I10
aI4
aI9
aa(lp494
I10
aI4
aI9
aa(lp495
I10
aI4
aI7
aa(lp496
I10
aI4
aI11
aa(lp497
I10
aI4
aI18
aa(lp498
I10
aI4
aI7
aa(lp499
I10
aI4
aI9
aa(lp500
I10
aI4
aI11
aa(lp501
I10
aI4
aI11
aa(lp502
I10
aI4
aI11
aa(lp503
I10
aI4
aI11
aa(lp504
I10
aI4
aI18
aa(lp505
I10
aI4
aI18
aa(lp506
I10
aI4
aI7
aa(lp507
I10
aI4
aI7
aa(lp508
I10
aI4
aI7
aa(lp509
I10
aI4
aI11
aa(lp510
I10
aI4
aI9
aa(lp511
I10
aI4
aI11
aa(lp512
I10
aI4
aI11
aa(lp513
I10
aI4
aI9
aa(lp514
I10
aI4
aI11
aa(lp515
I10
aI4
aI9
aa(lp516
I10
aI4
aI18
aa(lp517
I10
aI4
aI18
aa(lp518
I10
aI4
aI18
aa(lp519
I10
aI4
aI7
aa(lp520
I10
aI4
aI7
aa(lp521
I10
aI4
aI18
aa(lp522
I10
aI4
aI11
aa(lp523
I10
aI4
aI7
aa(lp524
I10
aI4
aI18
aa(lp525
I10
aI4
aI11
aa(lp526
I10
aI4
aI9
aa(lp527
I10
aI4
aI9
aa(lp528
I10
aI4
aI9
aa(lp529
I10
aI4
aI11
aa(lp530
I10
aI4
aI11
aa(lp531
I10
aI4
aI9
aa(lp532
I10
aI4
aI18
aa(lp533
I10
aI4
aI18
aa(lp534
I10
aI4
aI9
aa(lp535
I10
aI4
aI9
aa(lp536
I10
aI4
aI18
aa(lp537
I10
aI4
aI11
aa(lp538
I10
aI4
aI18
aa(lp539
I10
aI4
aI7
aa(lp540
I10
aI4
aI18
aa(lp541
I10
aI4
aI18
aa(lp542
I10
aI4
aI11
aa(lp543
I10
aI4
aI11
aa(lp544
I10
aI4
aI7
aa(lp545
I10
aI4
aI18
aa(lp546
I10
aI4
aI11
aa(lp547
I10
aI4
aI11
aa(lp548
I10
aI4
aI7
aa(lp549
I10
aI4
aI18
aa(lp550
I10
aI4
aI7
aa(lp551
I10
aI4
aI18
aa(lp552
I10
aI4
aI18
aa(lp553
I10
aI4
aI11
aa(lp554
I10
aI4
aI18
aa(lp555
I10
aI4
aI11
aa(lp556
I10
aI4
aI18
aa(lp557
I10
aI4
aI11
aa(lp558
I10
aI4
aI18
aa(lp559
I10
aI4
aI11
aa(lp560
I10
aI4
aI11
aa(lp561
I10
aI4
aI9
aa(lp562
I10
aI4
aI7
aa(lp563
I10
aI4
aI18
aa(lp564
I10
aI4
aI7
aa(lp565
I10
aI4
aI11
aa(lp566
I10
aI4
aI7
aa(lp567
I10
aI4
aI7
aa(lp568
I10
aI4
aI9
aa(lp569
I10
aI4
aI11
aa(lp570
I10
aI4
aI9
aa(lp571
I10
aI4
aI18
aa(lp572
I10
aI4
aI18
aa(lp573
I10
aI4
aI18
aa(lp574
I10
aI4
aI11
aa(lp575
I10
aI4
aI9
aa(lp576
I10
aI4
aI9
aa(lp577
I10
aI4
aI7
aa(lp578
I10
aI4
aI7
aa(lp579
I10
aI4
aI7
aa(lp580
I10
aI4
aI11
aa(lp581
I10
aI4
aI18
aa(lp582
I10
aI4
aI7
aa(lp583
I10
aI4
aI7
aa(lp584
I10
aI4
aI11
aa(lp585
I10
aI4
aI18
aa(lp586
I10
aI4
aI11
aa(lp587
I10
aI4
aI9
aa(lp588
I10
aI4
aI9
aa(lp589
I10
aI4
aI11
aa(lp590
I10
aI4
aI18
aa(lp591
I10
aI4
aI11
aa(lp592
I10
aI4
aI11
aa(lp593
I10
aI4
aI18
aa(lp594
I10
aI4
aI9
aa(lp595
I10
aI4
aI18
aa(lp596
I10
aI4
aI11
aa(lp597
I10
aI4
aI11
aa(lp598
I10
aI4
aI11
aa(lp599
I10
aI4
aI18
aa(lp600
I10
aI4
aI18
aa(lp601
I10
aI4
aI11
aa(lp602
I10
aI4
aI11
aa(lp603
I10
aI4
aI9
aa(lp604
I10
aI4
aI11
aa(lp605
I10
aI4
aI7
aa(lp606
I10
aI4
aI18
aa(lp607
I10
aI4
aI18
aa(lp608
I10
aI4
aI11
aa(lp609
I10
aI4
aI7
aa(lp610
I10
aI4
aI11
aa(lp611
I10
aI4
aI18
aa(lp612
I10
aI4
aI18
aa(lp613
I10
aI4
aI11
aa(lp614
I10
aI4
aI7
aa(lp615
I10
aI4
aI18
aa(lp616
I10
aI4
aI7
aa(lp617
I10
aI4
aI7
aa(lp618
I10
aI4
aI7
aa(lp619
I10
aI4
aI9
aa(lp620
I10
aI4
aI9
aa(lp621
I10
aI4
aI9
aa(lp622
I10
aI4
aI9
aa(lp623
I10
aI4
aI18
aa(lp624
I10
aI4
aI7
aa(lp625
I10
aI4
aI7
aa(lp626
I10
aI4
aI18
aa(lp627
I10
aI4
aI11
aa(lp628
I10
aI4
aI18
aa(lp629
I10
aI4
aI9
aa(lp630
I10
aI4
aI9
aa(lp631
I10
aI4
aI18
aa(lp632
I10
aI4
aI11
aa(lp633
I10
aI4
aI11
aa(lp634
I10
aI4
aI7
aa(lp635
I10
aI4
aI9
aa(lp636
I10
aI4
aI7
aa(lp637
I10
aI4
aI11
aa(lp638
I10
aI4
aI11
aa(lp639
I10
aI4
aI11
aa(lp640
I10
aI4
aI18
aa(lp641
I10
aI4
aI11
aa(lp642
I10
aI4
aI18
aa(lp643
I10
aI4
aI18
aa(lp644
I10
aI4
aI7
aa(lp645
I10
aI4
aI7
aa(lp646
I10
aI4
aI18
aa(lp647
I10
aI4
aI18
aa(lp648
I10
aI4
aI18
aa(lp649
I10
aI4
aI9
aa(lp650
I10
aI4
aI9
aa(lp651
I10
aI4
aI11
aa(lp652
I10
aI4
aI9
aa(lp653
I10
aI4
aI11
aa(lp654
I10
aI4
aI11
aa(lp655
I10
aI4
aI11
aa(lp656
I10
aI4
aI9
aa(lp657
I10
aI4
aI7
aa(lp658
I10
aI4
aI9
aa(lp659
I10
aI4
aI7
aa(lp660
I10
aI4
aI7
aa(lp661
I10
aI4
aI7
aa(lp662
I10
aI4
aI7
aa(lp663
I10
aI4
aI9
aa(lp664
I10
aI4
aI11
aa(lp665
I10
aI4
aI9
aa(lp666
I10
aI4
aI9
aa(lp667
I10
aI4
aI9
aa(lp668
I10
aI4
aI11
aa(lp669
I10
aI4
aI11
aa(lp670
I10
aI4
aI18
aa(lp671
I10
aI4
aI9
aa(lp672
I10
aI4
aI9
aa(lp673
I10
aI4
aI7
aa(lp674
I10
aI4
aI11
aa(lp675
I10
aI4
aI9
aa(lp676
I10
aI4
aI9
aa(lp677
I10
aI4
aI7
aa(lp678
I10
aI4
aI7
aa(lp679
I10
aI4
aI7
aa(lp680
I10
aI4
aI7
aa(lp681
I10
aI4
aI18
aa(lp682
I10
aI4
aI18
aa(lp683
I10
aI4
aI9
aa(lp684
I10
aI4
aI9
aa(lp685
I10
aI4
aI18
aa(lp686
I10
aI4
aI18
aa(lp687
I10
aI4
aI11
aa(lp688
I10
aI4
aI11
aa(lp689
I10
aI4
aI7
aa(lp690
I10
aI4
aI9
aa(lp691
I10
aI4
aI7
aa(lp692
I10
aI4
aI11
aa(lp693
I10
aI4
aI9
aa(lp694
I10
aI4
aI9
aa(lp695
I10
aI4
aI7
aa(lp696
I10
aI4
aI9
aa(lp697
I10
aI4
aI9
aa(lp698
I10
aI4
aI9
aa(lp699
I10
aI4
aI7
aa(lp700
I10
aI4
aI9
aa(lp701
I10
aI4
aI9
aa(lp702
I10
aI4
aI7
aa(lp703
I10
aI4
aI9
aa(lp704
I10
aI4
aI18
aa(lp705
I10
aI4
aI9
aa(lp706
I10
aI4
aI9
aa(lp707
I10
aI4
aI7
aa(lp708
I10
aI4
aI11
aa(lp709
I10
aI4
aI11
aa(lp710
I10
aI4
aI7
aa(lp711
I10
aI4
aI18
aa(lp712
I10
aI4
aI9
aa(lp713
I10
aI4
aI18
aa(lp714
I10
aI4
aI11
aa(lp715
I10
aI4
aI7
aa(lp716
I10
aI4
aI18
aa(lp717
I10
aI4
aI11
aa(lp718
I10
aI4
aI7
aa(lp719
I10
aI4
aI7
aa(lp720
I10
aI4
aI11
aa(lp721
I10
aI4
aI18
aa(lp722
I10
aI4
aI11
aa(lp723
I10
aI4
aI11
aa(lp724
I10
aI4
aI7
aa(lp725
I10
aI4
aI7
aa(lp726
I10
aI4
aI7
aa(lp727
I10
aI4
aI7
aa(lp728
I10
aI4
aI11
aa(lp729
I10
aI4
aI11
aa(lp730
I10
aI4
aI11
aa(lp731
I10
aI4
aI9
aa(lp732
I10
aI4
aI9
aa(lp733
I10
aI4
aI9
aa(lp734
I10
aI4
aI18
aa(lp735
I10
aI4
aI11
aa(lp736
I10
aI4
aI9
aa(lp737
I10
aI4
aI9
aa(lp738
I10
aI4
aI9
aa(lp739
I10
aI4
aI7
aa(lp740
I10
aI4
aI18
aa(lp741
I10
aI4
aI9
aa(lp742
I10
aI4
aI7
aa(lp743
I10
aI4
aI7
aa(lp744
I10
aI4
aI18
aa(lp745
I10
aI4
aI11
aa(lp746
I10
aI4
aI18
aa(lp747
I10
aI4
aI9
aa(lp748
I10
aI4
aI11
aa(lp749
I10
aI4
aI18
aa(lp750
I10
aI4
aI9
aa(lp751
I10
aI4
aI18
aa(lp752
I10
aI4
aI9
aa(lp753
I10
aI4
aI18
aa(lp754
I10
aI4
aI18
aa(lp755
I10
aI4
aI11
aa(lp756
I10
aI4
aI11
aa(lp757
I10
aI4
aI7
aa(lp758
I10
aI4
aI7
aa(lp759
I10
aI4
aI7
aa(lp760
I10
aI4
aI18
aa(lp761
I10
aI4
aI11
aa(lp762
I10
aI4
aI9
aa(lp763
I10
aI4
aI18
aa(lp764
I10
aI4
aI18
aa(lp765
I10
aI4
aI7
aa(lp766
I10
aI4
aI11
aa(lp767
I10
aI4
aI11
aa(lp768
I10
aI4
aI11
aa(lp769
I10
aI4
aI9
aa(lp770
I10
aI4
aI7
aa(lp771
I10
aI4
aI11
aa(lp772
I10
aI4
aI9
aa(lp773
I10
aI4
aI18
aa(lp774
I10
aI4
aI11
aa(lp775
I10
aI4
aI11
aa(lp776
I10
aI4
aI7
aa(lp777
I10
aI4
aI18
aa(lp778
I10
aI4
aI18
aa(lp779
I10
aI4
aI11
aa(lp780
I10
aI4
aI18
aa(lp781
I10
aI4
aI7
aa(lp782
I10
aI4
aI7
aa(lp783
I10
aI4
aI9
aa(lp784
I10
aI4
aI9
aa(lp785
I10
aI4
aI9
aa(lp786
I10
aI4
aI7
aa(lp787
I10
aI4
aI9
aa(lp788
I10
aI4
aI7
aa(lp789
I10
aI4
aI9
aa(lp790
I10
aI4
aI11
aa(lp791
I10
aI4
aI18
aa(lp792
I10
aI4
aI18
aa(lp793
I10
aI4
aI18
aa(lp794
I10
aI4
aI11
aa(lp795
I10
aI4
aI18
aa(lp796
I10
aI4
aI18
aa(lp797
I10
aI4
aI9
aa(lp798
I10
aI4
aI9
aa(lp799
I10
aI4
aI9
aa(lp800
I10
aI4
aI7
aa(lp801
I10
aI4
aI18
aa(lp802
I10
aI4
aI18
aa(lp803
I10
aI4
aI18
aa(lp804
I10
aI4
aI11
aa(lp805
I10
aI4
aI18
aa(lp806
I10
aI4
aI9
aa(lp807
I10
aI4
aI18
aa(lp808
I10
aI4
aI18
aa(lp809
I10
aI4
aI11
aa(lp810
I10
aI4
aI11
aa(lp811
I10
aI4
aI11
aa(lp812
I10
aI4
aI18
aa(lp813
I10
aI4
aI7
aa(lp814
I10
aI4
aI11
aa(lp815
I10
aI4
aI7
aa(lp816
I10
aI4
aI11
aa(lp817
I10
aI4
aI11
aa(lp818
I10
aI4
aI18
aa(lp819
I10
aI4
aI9
aa(lp820
I10
aI4
aI11
aa(lp821
I10
aI4
aI9
aa(lp822
I10
aI4
aI9
aa(lp823
I10
aI4
aI11
aa(lp824
I10
aI4
aI11
aa(lp825
I10
aI4
aI9
aa(lp826
I10
aI4
aI11
aa(lp827
I10
aI4
aI7
aa(lp828
I10
aI4
aI11
aa(lp829
I10
aI4
aI9
aa(lp830
I10
aI4
aI7
aa(lp831
I10
aI4
aI11
aa(lp832
I10
aI4
aI11
aa(lp833
I10
aI4
aI18
aa(lp834
I10
aI4
aI7
aa(lp835
I10
aI4
aI9
aa(lp836
I10
aI4
aI7
aa(lp837
I10
aI4
aI9
aa(lp838
I10
aI4
aI18
aa(lp839
I10
aI4
aI7
aa(lp840
I10
aI4
aI18
aa(lp841
I10
aI4
aI11
aa(lp842
I10
aI4
aI9
aa(lp843
I10
aI4
aI7
aa(lp844
I10
aI4
aI11
aa(lp845
I10
aI4
aI11
aa(lp846
I10
aI4
aI9
aa(lp847
I10
aI4
aI9
aa(lp848
I10
aI4
aI9
aa(lp849
I10
aI4
aI9
aa(lp850
I10
aI4
aI18
aa(lp851
I10
aI4
aI9
aa(lp852
I10
aI4
aI9
aa(lp853
I10
aI4
aI9
aa(lp854
I10
aI4
aI18
aa(lp855
I10
aI4
aI11
aa(lp856
I10
aI4
aI7
aa(lp857
I10
aI4
aI9
aa(lp858
I10
aI4
aI7
aa(lp859
I10
aI4
aI7
aa(lp860
I10
aI4
aI9
aa(lp861
I10
aI4
aI18
aa(lp862
I10
aI4
aI7
aa(lp863
I10
aI4
aI9
aa(lp864
I10
aI4
aI11
aa(lp865
I10
aI4
aI11
aa(lp866
I10
aI4
aI11
aa(lp867
I10
aI4
aI18
aa(lp868
I10
aI4
aI9
aa(lp869
I10
aI4
aI18
aa(lp870
I10
aI4
aI18
aa(lp871
I10
aI4
aI18
aa(lp872
I10
aI4
aI9
aa(lp873
I10
aI4
aI11
aa(lp874
I10
aI4
aI7
aa(lp875
I10
aI4
aI7
aa(lp876
I10
aI4
aI11
aa(lp877
I10
aI4
aI7
aa(lp878
I10
aI4
aI7
aa(lp879
I10
aI4
aI7
aa(lp880
I10
aI4
aI9
aa(lp881
I10
aI4
aI18
aa(lp882
I10
aI4
aI18
aa(lp883
I10
aI4
aI18
aa(lp884
I10
aI4
aI18
aa(lp885
I10
aI4
aI18
aa(lp886
I10
aI4
aI11
aa(lp887
I10
aI4
aI7
aa(lp888
I10
aI4
aI7
aa(lp889
I10
aI4
aI11
aa(lp890
I10
aI4
aI11
aa(lp891
I10
aI4
aI7
aa(lp892
I10
aI4
aI9
aa(lp893
I10
aI4
aI11
aa(lp894
I10
aI4
aI11
aa(lp895
I10
aI4
aI9
aa(lp896
I10
aI4
aI7
aa(lp897
I10
aI4
aI7
aa(lp898
I10
aI4
aI7
aa(lp899
I10
aI4
aI11
aa(lp900
I10
aI4
aI18
aa(lp901
I10
aI4
aI11
aa(lp902
I10
aI4
aI11
aa(lp903
I10
aI4
aI7
aa(lp904
I10
aI4
aI11
aa(lp905
I10
aI4
aI7
aa(lp906
I10
aI4
aI18
aa(lp907
I10
aI4
aI7
aa(lp908
I10
aI4
aI18
aa(lp909
I10
aI4
aI18
aa(lp910
I10
aI4
aI9
aa(lp911
I10
aI4
aI11
aa(lp912
I10
aI4
aI11
aa(lp913
I10
aI4
aI7
aa(lp914
I10
aI4
aI18
aa(lp915
I10
aI4
aI11
aa(lp916
I10
aI4
aI9
aa(lp917
I10
aI4
aI18
aa(lp918
I10
aI4
aI18
aa(lp919
I10
aI4
aI18
aa(lp920
I10
aI4
aI7
aa(lp921
I10
aI4
aI7
aa(lp922
I10
aI4
aI7
aa(lp923
I10
aI4
aI7
aa(lp924
I10
aI4
aI9
aa(lp925
I10
aI4
aI9
aa(lp926
I10
aI4
aI9
aa(lp927
I10
aI4
aI9
aa(lp928
I10
aI4
aI11
aa(lp929
I10
aI4
aI9
aa(lp930
I10
aI4
aI18
aa(lp931
I10
aI4
aI11
aa(lp932
I10
aI4
aI7
aa(lp933
I10
aI4
aI11
aa(lp934
I10
aI4
aI11
aa(lp935
I10
aI4
aI9
aa(lp936
I10
aI4
aI9
aa(lp937
I10
aI4
aI9
aa(lp938
I10
aI4
aI11
aa(lp939
I10
aI4
aI18
aa(lp940
I10
aI4
aI18
aa(lp941
I10
aI4
aI18
aa(lp942
I10
aI4
aI11
aa(lp943
I10
aI4
aI11
aa(lp944
I10
aI4
aI18
aa(lp945
I10
aI4
aI18
aa(lp946
I10
aI4
aI9
aa(lp947
I10
aI4
aI7
aa(lp948
I10
aI4
aI9
aa(lp949
I10
aI4
aI18
aa(lp950
I10
aI4
aI18
aa(lp951
I10
aI4
aI11
aa(lp952
I10
aI4
aI11
aa(lp953
I10
aI4
aI7
aa(lp954
I10
aI4
aI18
aa(lp955
I10
aI4
aI7
aa(lp956
I10
aI4
aI9
aa(lp957
I10
aI4
aI11
aa(lp958
I10
aI4
aI9
aa(lp959
I10
aI4
aI7
aa(lp960
I10
aI4
aI7
aa(lp961
I10
aI4
aI11
aa(lp962
I10
aI4
aI9
aa(lp963
I10
aI4
aI7
aa(lp964
I10
aI4
aI9
aa(lp965
I10
aI4
aI11
aa(lp966
I10
aI4
aI9
aa(lp967
I10
aI4
aI9
aa(lp968
I10
aI4
aI11
aa(lp969
I10
aI4
aI18
aa(lp970
I10
aI4
aI18
aa(lp971
I10
aI4
aI9
aa(lp972
I10
aI4
aI9
aa(lp973
I10
aI4
aI7
aa(lp974
I10
aI4
aI9
aa(lp975
I10
aI4
aI11
aa(lp976
I10
aI4
aI18
aa(lp977
I10
aI4
aI9
aa(lp978
I10
aI4
aI7
aa(lp979
I10
aI4
aI18
aa(lp980
I10
aI4
aI11
aa(lp981
I10
aI4
aI9
aa(lp982
I10
aI4
aI7
aa(lp983
I10
aI4
aI11
aa(lp984
I10
aI4
aI18
aa(lp985
I10
aI4
aI7
aa(lp986
I10
aI4
aI9
aa(lp987
I10
aI4
aI11
aa(lp988
I10
aI4
aI9
aa(lp989
I10
aI4
aI11
aa(lp990
I10
aI4
aI11
aa(lp991
I10
aI4
aI7
aa(lp992
I10
aI4
aI7
aa(lp993
I10
aI4
aI11
aa(lp994
I10
aI4
aI7
aa(lp995
I10
aI4
aI9
aa(lp996
I10
aI4
aI18
aa(lp997
I10
aI4
aI18
aa(lp998
I10
aI4
aI7
aa(lp999
I10
aI4
aI9
aa(lp1000
I10
aI4
aI7
aa.