(dp0
S'hallway'
p1
I1
sS'bathroom'
p2
I13
sS'garden'
p3
I2
sS'office'
p4
I3
sS'is'
p5
I4
sS'Sandra'
p6
I18
sS'moved'
p7
I5
sS'back'
p8
I6
sS'went'
p9
I19
sS'the'
p10
I16
sS'to'
p11
I17
sS'Daniel'
p12
I7
sS'journeyed'
p13
I14
sS'bedroom'
p14
I8
sS'travelled'
p15
I15
sS'John'
p16
I9
sS'Where'
p17
I10
sS'Mary'
p18
I11
sS'kitchen'
p19
I12
s.